target datalayout = "e-m:e-p270:32:32-p271:32:32-p272:64:64-i64:64-i128:128-f80:128-n8:16:32:64-S128"
target triple = "x86_64-pc-linux-gnu"

%struct.AVCodecContext = type { ptr, i32, i32, ptr, i32, i32, ptr, ptr, ptr, i64, i32, i32, ptr, i32, %struct.AVRational, %struct.AVRational, %struct.AVRational, i32, i32, i32, i32, i32, %struct.AVRational, i32, i32, i32, i32, i32, i32, i32, i32, i32, i32, i32, ptr, ptr, i32, float, float, float, float, float, float, float, float, float, i32, i32, i32, i32, i32, i32, i32, i32, i32, i32, i32, i32, ptr, ptr, ptr, i32, i32, i32, i32, i32, i32, i32, i32, i32, i32, %struct.AVChannelLayout, i32, i32, i32, i32, i32, i32, i32, i32, ptr, i32, i32, i32, float, float, i32, i32, i32, i32, i32, ptr, i64, i64, float, float, i32, i32, ptr, ptr, i32, i32, i32, i32, i32, ptr, ptr, ptr, ptr, i32, i32, [8 x i64], i32, i32, i32, i32, i32, i32, i32, ptr, ptr, i32, i32, i32, i32, i32, i32, i32, i32, i32, i32, ptr, ptr, i32, i32, ptr, ptr, ptr, ptr, i32, i32, i64, i32, i32, i64, ptr, i64, ptr, i32, ptr, i32 }
%struct.AVRational = type { i32, i32 }
%struct.AVChannelLayout = type { i32, i32, %union.anon.0, ptr }
%union.anon.0 = type { i64 }
%struct.MSS4Context = type { ptr, [64 x i32], [3 x [256 x i8]], i32, [2 x [64 x i16]], [3 x ptr], [3 x i64], [4 x [4 x i32]], [3 x [4 x i32]] }

@mss4_decode_init.init_static_once = internal global i32 0, align 4
@.str.2 = private unnamed_addr constant [24 x i8] c"Cannot allocate buffer\0A\00", align 1

; Function Attrs: cold nounwind optsize uwtable
define internal i32 @mss4_decode_init(ptr noundef %0) #0 {
  %2 = alloca i32, align 4
  %3 = alloca ptr, align 8
  %4 = alloca ptr, align 8
  %5 = alloca i32, align 4
  %6 = alloca i32, align 4
  store ptr %0, ptr %3, align 8, !tbaa !4
  call void @llvm.lifetime.start.p0(i64 8, ptr %4) #10
  %7 = load ptr, ptr %3, align 8, !tbaa !4
  %8 = getelementptr inbounds nuw %struct.AVCodecContext, ptr %7, i32 0, i32 6
  %9 = load ptr, ptr %8, align 8, !tbaa !9
  store ptr %9, ptr %4, align 8, !tbaa !29
  call void @llvm.lifetime.start.p0(i64 4, ptr %5) #10
  store i32 0, ptr %5, align 4, !tbaa !31
  br label %10

10:                                               ; preds = %55, %1
  %11 = load i32, ptr %5, align 4, !tbaa !31
  %12 = icmp slt i32 %11, 3
  br i1 %12, label %13, label %58

13:                                               ; preds = %10
  %14 = load ptr, ptr %3, align 8, !tbaa !4
  %15 = getelementptr inbounds nuw %struct.AVCodecContext, ptr %14, i32 0, i32 18
  %16 = load i32, ptr %15, align 8, !tbaa !32
  %17 = add nsw i32 %16, 16
  %18 = sub nsw i32 %17, 1
  %19 = and i32 %18, -16
  %20 = load i32, ptr %5, align 4, !tbaa !31
  %21 = icmp ne i32 %20, 0
  %22 = xor i1 %21, true
  %23 = xor i1 %22, true
  %24 = zext i1 %23 to i32
  %25 = add nsw i32 2, %24
  %26 = ashr i32 %19, %25
  %27 = sext i32 %26 to i64
  %28 = load ptr, ptr %4, align 8, !tbaa !29
  %29 = getelementptr inbounds nuw %struct.MSS4Context, ptr %28, i32 0, i32 6
  %30 = load i32, ptr %5, align 4, !tbaa !31
  %31 = sext i32 %30 to i64
  %32 = getelementptr inbounds [3 x i64], ptr %29, i64 0, i64 %31
  store i64 %27, ptr %32, align 8, !tbaa !33
  %33 = load ptr, ptr %4, align 8, !tbaa !29
  %34 = getelementptr inbounds nuw %struct.MSS4Context, ptr %33, i32 0, i32 6
  %35 = load i32, ptr %5, align 4, !tbaa !31
  %36 = sext i32 %35 to i64
  %37 = getelementptr inbounds [3 x i64], ptr %34, i64 0, i64 %36
  %38 = load i64, ptr %37, align 8, !tbaa !33
  %39 = call ptr @av_malloc_array(i64 noundef %38, i64 noundef 4)
  %40 = load ptr, ptr %4, align 8, !tbaa !29
  %41 = getelementptr inbounds nuw %struct.MSS4Context, ptr %40, i32 0, i32 5
  %42 = load i32, ptr %5, align 4, !tbaa !31
  %43 = sext i32 %42 to i64
  %44 = getelementptr inbounds [3 x ptr], ptr %41, i64 0, i64 %43
  store ptr %39, ptr %44, align 8, !tbaa !34
  %45 = load ptr, ptr %4, align 8, !tbaa !29
  %46 = getelementptr inbounds nuw %struct.MSS4Context, ptr %45, i32 0, i32 5
  %47 = load i32, ptr %5, align 4, !tbaa !31
  %48 = sext i32 %47 to i64
  %49 = getelementptr inbounds [3 x ptr], ptr %46, i64 0, i64 %48
  %50 = load ptr, ptr %49, align 8, !tbaa !34
  %51 = icmp ne ptr %50, null
  br i1 %51, label %54, label %52

52:                                               ; preds = %13
  %53 = load ptr, ptr %3, align 8, !tbaa !4
  call void (ptr, i32, ptr, ...) @av_log(ptr noundef %53, i32 noundef 16, ptr noundef @.str.2)
  store i32 -12, ptr %2, align 4
  store i32 1, ptr %6, align 4
  br label %71

54:                                               ; preds = %13
  br label %55

55:                                               ; preds = %54
  %56 = load i32, ptr %5, align 4, !tbaa !31
  %57 = add nsw i32 %56, 1
  store i32 %57, ptr %5, align 4, !tbaa !31
  br label %10, !llvm.loop !35

58:                                               ; preds = %10
  %59 = call ptr @av_frame_alloc()
  %60 = load ptr, ptr %4, align 8, !tbaa !29
  %61 = getelementptr inbounds nuw %struct.MSS4Context, ptr %60, i32 0, i32 0
  store ptr %59, ptr %61, align 8, !tbaa !37
  %62 = load ptr, ptr %4, align 8, !tbaa !29
  %63 = getelementptr inbounds nuw %struct.MSS4Context, ptr %62, i32 0, i32 0
  %64 = load ptr, ptr %63, align 8, !tbaa !37
  %65 = icmp ne ptr %64, null
  br i1 %65, label %67, label %66

66:                                               ; preds = %58
  store i32 -12, ptr %2, align 4
  store i32 1, ptr %6, align 4
  br label %71

67:                                               ; preds = %58
  %68 = load ptr, ptr %3, align 8, !tbaa !4
  %69 = getelementptr inbounds nuw %struct.AVCodecContext, ptr %68, i32 0, i32 23
  store i32 5, ptr %69, align 8, !tbaa !40
  %70 = call i32 @pthread_once(ptr noundef @mss4_decode_init.init_static_once, ptr noundef @mss4_init_vlcs)
  store i32 0, ptr %2, align 4
  store i32 1, ptr %6, align 4
  br label %71

71:                                               ; preds = %67, %66, %52
  call void @llvm.lifetime.end.p0(i64 4, ptr %5) #10
  call void @llvm.lifetime.end.p0(i64 8, ptr %4) #10
  %72 = load i32, ptr %2, align 4
  ret i32 %72
}