; Function Attrs: cold nounwind optsize uwtable
define internal range(i32 -12, 1) i32 @mss4_decode_init(ptr noundef %0) #0 {
  %2 = getelementptr inbounds nuw i8, ptr %0, i64 32
  %3 = load ptr, ptr %2, align 8, !tbaa !4
  %4 = getelementptr inbounds nuw i8, ptr %0, i64 112
  %5 = getelementptr inbounds nuw i8, ptr %3, i64 1320
  %6 = getelementptr inbounds nuw i8, ptr %3, i64 1296
  br label %8

7:                                                ; preds = %8
  %indvars.iv.next = add nuw nsw i64 %indvars.iv, 1
  %exitcond.not = icmp eq i64 %indvars.iv.next, 3
  br i1 %exitcond.not, label %19, label %8, !llvm.loop !27

8:                                                ; preds = %1, %7
  %indvars.iv = phi i64 [ 0, %1 ], [ %indvars.iv.next, %7 ]
  %9 = load i32, ptr %4, align 8, !tbaa !29
  %10 = add nsw i32 %9, 15
  %11 = and i32 %10, -16
  %.not18 = icmp eq i64 %indvars.iv, 0
  %12 = select i1 %.not18, i32 2, i32 3
  %13 = ashr exact i32 %11, %12
  %14 = sext i32 %13 to i64
  %15 = getelementptr inbounds nuw [3 x i64], ptr %5, i64 0, i64 %indvars.iv
  store i64 %14, ptr %15, align 8, !tbaa !30
  %16 = tail call ptr @av_malloc_array(i64 noundef %14, i64 noundef 4) #8
  %17 = getelementptr inbounds nuw [3 x ptr], ptr %6, i64 0, i64 %indvars.iv
  store ptr %16, ptr %17, align 8, !tbaa !31
  %.not19 = icmp eq ptr %16, null
  br i1 %.not19, label %18, label %7

18:                                               ; preds = %8
  tail call void (ptr, i32, ptr, ...) @av_log(ptr noundef nonnull %0, i32 noundef 16, ptr noundef nonnull @.str.2) #8
  br label %24

19:                                               ; preds = %7
  %20 = tail call ptr @av_frame_alloc() #8
  store ptr %20, ptr %3, align 8, !tbaa !32
  %.not = icmp eq ptr %20, null
  br i1 %.not, label %24, label %21

21:                                               ; preds = %19
  %22 = getelementptr inbounds nuw i8, ptr %0, i64 136
  store i32 5, ptr %22, align 8, !tbaa !35
  %23 = tail call i32 @pthread_once(ptr noundef nonnull @mss4_decode_init.init_static_once, ptr noundef nonnull @mss4_init_vlcs) #8
  br label %24

24:                                               ; preds = %19, %21, %18
  %.017 = phi i32 [ -12, %18 ], [ 0, %21 ], [ -12, %19 ]
  ret i32 %.017
}